target datalayout = "e-m:e-p270:32:32-p271:32:32-p272:64:64-i64:64-i128:128-f80:128-n8:16:32:64-S128"
target triple = "x86_64-pc-linux-gnu"

%struct._t38_conv = type { [8 x i8], i32, %struct._t38_conv_info, %struct._t38_conv_info }
%struct._t38_conv_info = type { i32, i32, i32, i32, i32, i32, i32, double, i32, i32, ptr }
%struct._proto_node = type { ptr, ptr, ptr, ptr, ptr, ptr, ptr }
%struct.field_info = type { ptr, i32, i32, i32, i32, i32, i32, ptr, ptr, ptr, i32, i32 }

@hf_t38_setup = internal global i32 0, align 4
@hf_t38_setup_frame = internal global i32 0, align 4
@hf_t38_setup_method = internal global i32 0, align 4
@ett_t38_setup = internal global i32 0, align 4
@.str.157 = private unnamed_addr constant [1 x i8] zeroinitializer, align 1
@.str.158 = private unnamed_addr constant [30 x i8] c"Stream setup by %s (frame %u)\00", align 1

; Function Attrs: inlinehint nounwind null_pointer_is_valid sspstrong uwtable
define internal void @proto_item_set_generated(ptr noundef %0) #2 {
  %2 = alloca ptr, align 8
  store ptr %0, ptr %2, align 8
  %3 = load ptr, ptr %2, align 8
  %4 = icmp ne ptr %3, null
  br i1 %4, label %5, label %24

5:                                                ; preds = %1
  br label %6

6:                                                ; preds = %5
  %7 = load ptr, ptr %2, align 8
  %8 = getelementptr inbounds nuw %struct._proto_node, ptr %7, i32 0, i32 5
  %9 = load ptr, ptr %8, align 8
  %10 = icmp ne ptr %9, null
  br i1 %10, label %11, label %22

11:                                               ; preds = %6
  %12 = load ptr, ptr %2, align 8
  %13 = getelementptr inbounds nuw %struct._proto_node, ptr %12, i32 0, i32 5
  %14 = load ptr, ptr %13, align 8
  %15 = getelementptr inbounds nuw %struct.field_info, ptr %14, i32 0, i32 6
  %16 = load i32, ptr %15, align 4
  %17 = or i32 %16, 2
  %18 = load ptr, ptr %2, align 8
  %19 = getelementptr inbounds nuw %struct._proto_node, ptr %18, i32 0, i32 5
  %20 = load ptr, ptr %19, align 8
  %21 = getelementptr inbounds nuw %struct.field_info, ptr %20, i32 0, i32 6
  store i32 %17, ptr %21, align 4
  br label %22

22:                                               ; preds = %11, %6
  br label %23

23:                                               ; preds = %22
  br label %24

24:                                               ; preds = %23, %1
  ret void
}

; Function Attrs: null_pointer_is_valid sspstrong uwtable
define internal void @show_setup_info(ptr noundef %0, ptr noundef %1, ptr noundef %2) #0 {
  %4 = alloca ptr, align 8
  %5 = alloca ptr, align 8
  %6 = alloca ptr, align 8
  %7 = alloca ptr, align 8
  %8 = alloca ptr, align 8
  %9 = alloca i32, align 4
  %10 = alloca ptr, align 8
  store ptr %0, ptr %4, align 8
  store ptr %1, ptr %5, align 8
  store ptr %2, ptr %6, align 8
  call void @llvm.lifetime.start.p0(i64 8, ptr %7) #10
  call void @llvm.lifetime.start.p0(i64 8, ptr %8) #10
  %11 = load ptr, ptr %6, align 8
  %12 = icmp ne ptr %11, null
  br i1 %12, label %13, label %18

13:                                               ; preds = %3
  %14 = load ptr, ptr %6, align 8
  %15 = getelementptr inbounds nuw %struct._t38_conv, ptr %14, i32 0, i32 1
  %16 = load i32, ptr %15, align 8
  %17 = icmp eq i32 %16, 0
  br i1 %17, label %18, label %19

18:                                               ; preds = %13, %3
  store i32 1, ptr %9, align 4
  br label %54

19:                                               ; preds = %13
  %20 = load ptr, ptr %5, align 8
  %21 = load i32, ptr @hf_t38_setup, align 4
  %22 = load ptr, ptr %4, align 8
  %23 = load ptr, ptr %6, align 8
  %24 = getelementptr inbounds nuw %struct._t38_conv, ptr %23, i32 0, i32 0
  %25 = getelementptr inbounds [8 x i8], ptr %24, i64 0, i64 0
  %26 = load ptr, ptr %6, align 8
  %27 = getelementptr inbounds nuw %struct._t38_conv, ptr %26, i32 0, i32 1
  %28 = load i32, ptr %27, align 8
  %29 = call ptr (ptr, i32, ptr, i32, i32, ptr, ptr, ...) @proto_tree_add_string_format(ptr noundef %20, i32 noundef %21, ptr noundef %22, i32 noundef 0, i32 noundef 0, ptr noundef @.str.157, ptr noundef @.str.158, ptr noundef %25, i32 noundef %28)
  store ptr %29, ptr %8, align 8
  %30 = load ptr, ptr %8, align 8
  call void @proto_item_set_generated(ptr noundef %30)
  %31 = load ptr, ptr %8, align 8
  %32 = load i32, ptr @ett_t38_setup, align 4
  %33 = call ptr @proto_item_add_subtree(ptr noundef %31, i32 noundef %32)
  store ptr %33, ptr %7, align 8
  %34 = load ptr, ptr %7, align 8
  %35 = icmp ne ptr %34, null
  br i1 %35, label %36, label %53

36:                                               ; preds = %19
  call void @llvm.lifetime.start.p0(i64 8, ptr %10) #10
  %37 = load ptr, ptr %7, align 8
  %38 = load i32, ptr @hf_t38_setup_frame, align 4
  %39 = load ptr, ptr %4, align 8
  %40 = load ptr, ptr %6, align 8
  %41 = getelementptr inbounds nuw %struct._t38_conv, ptr %40, i32 0, i32 1
  %42 = load i32, ptr %41, align 8
  %43 = call ptr @proto_tree_add_uint(ptr noundef %37, i32 noundef %38, ptr noundef %39, i32 noundef 0, i32 noundef 0, i32 noundef %42)
  store ptr %43, ptr %10, align 8
  %44 = load ptr, ptr %10, align 8
  call void @proto_item_set_generated(ptr noundef %44)
  %45 = load ptr, ptr %7, align 8
  %46 = load i32, ptr @hf_t38_setup_method, align 4
  %47 = load ptr, ptr %4, align 8
  %48 = load ptr, ptr %6, align 8
  %49 = getelementptr inbounds nuw %struct._t38_conv, ptr %48, i32 0, i32 0
  %50 = getelementptr inbounds [8 x i8], ptr %49, i64 0, i64 0
  %51 = call ptr @proto_tree_add_string(ptr noundef %45, i32 noundef %46, ptr noundef %47, i32 noundef 0, i32 noundef 0, ptr noundef %50)
  store ptr %51, ptr %10, align 8
  %52 = load ptr, ptr %10, align 8
  call void @proto_item_set_generated(ptr noundef %52)
  call void @llvm.lifetime.end.p0(i64 8, ptr %10) #10
  br label %53

53:                                               ; preds = %36, %19
  store i32 0, ptr %9, align 4
  br label %54

54:                                               ; preds = %53, %18
  call void @llvm.lifetime.end.p0(i64 8, ptr %8) #10
  call void @llvm.lifetime.end.p0(i64 8, ptr %7) #10
  %55 = load i32, ptr %9, align 4
  switch i32 %55, label %57 [
    i32 0, label %56
    i32 1, label %56
  ]

56:                                               ; preds = %54, %54
  ret void

57:                                               ; preds = %54
  unreachable
}