; Function Attrs: null_pointer_is_valid sspstrong uwtable
define internal fastcc void @show_setup_info(ptr noundef %0, ptr noundef %1, ptr noundef %2) unnamed_addr #0 {
  %.not = icmp eq ptr %2, null
  br i1 %.not, label %proto_item_set_generated.exit25, label %4

4:                                                ; preds = %3
  %5 = getelementptr inbounds nuw i8, ptr %2, i64 8
  %6 = load i32, ptr %5, align 8
  %7 = icmp eq i32 %6, 0
  br i1 %7, label %proto_item_set_generated.exit25, label %8

8:                                                ; preds = %4
  %9 = load i32, ptr @hf_t38_setup, align 4
  %10 = tail call ptr (ptr, i32, ptr, i32, i32, ptr, ptr, ...) @proto_tree_add_string_format(ptr noundef %1, i32 noundef %9, ptr noundef %0, i32 noundef 0, i32 noundef 0, ptr noundef nonnull @.str.157, ptr noundef nonnull @.str.158, ptr noundef nonnull %2, i32 noundef %6)
  %.not.i = icmp eq ptr %10, null
  br i1 %.not.i, label %proto_item_set_generated.exit, label %11

11:                                               ; preds = %8
  %12 = getelementptr inbounds nuw i8, ptr %10, i64 40
  %13 = load ptr, ptr %12, align 8
  %.not5.i = icmp eq ptr %13, null
  br i1 %.not5.i, label %proto_item_set_generated.exit, label %14

14:                                               ; preds = %11
  %15 = getelementptr inbounds nuw i8, ptr %13, i64 28
  %16 = load i32, ptr %15, align 4
  %17 = or i32 %16, 2
  store i32 %17, ptr %15, align 4
  br label %proto_item_set_generated.exit

proto_item_set_generated.exit:                    ; preds = %8, %11, %14
  %18 = load i32, ptr @ett_t38_setup, align 4
  %19 = tail call ptr @proto_item_add_subtree(ptr noundef %10, i32 noundef %18)
  %.not19 = icmp eq ptr %19, null
  br i1 %.not19, label %proto_item_set_generated.exit25, label %20

20:                                               ; preds = %proto_item_set_generated.exit
  %21 = load i32, ptr @hf_t38_setup_frame, align 4
  %22 = load i32, ptr %5, align 8
  %23 = tail call ptr @proto_tree_add_uint(ptr noundef nonnull %19, i32 noundef %21, ptr noundef %0, i32 noundef 0, i32 noundef 0, i32 noundef %22)
  %.not.i20 = icmp eq ptr %23, null
  br i1 %.not.i20, label %proto_item_set_generated.exit22, label %24

24:                                               ; preds = %20
  %25 = getelementptr inbounds nuw i8, ptr %23, i64 40
  %26 = load ptr, ptr %25, align 8
  %.not5.i21 = icmp eq ptr %26, null
  br i1 %.not5.i21, label %proto_item_set_generated.exit22, label %27

27:                                               ; preds = %24
  %28 = getelementptr inbounds nuw i8, ptr %26, i64 28
  %29 = load i32, ptr %28, align 4
  %30 = or i32 %29, 2
  store i32 %30, ptr %28, align 4
  br label %proto_item_set_generated.exit22

proto_item_set_generated.exit22:                  ; preds = %20, %24, %27
  %31 = load i32, ptr @hf_t38_setup_method, align 4
  %32 = tail call ptr @proto_tree_add_string(ptr noundef nonnull %19, i32 noundef %31, ptr noundef %0, i32 noundef 0, i32 noundef 0, ptr noundef nonnull %2)
  %.not.i23 = icmp eq ptr %32, null
  br i1 %.not.i23, label %proto_item_set_generated.exit25, label %33

33:                                               ; preds = %proto_item_set_generated.exit22
  %34 = getelementptr inbounds nuw i8, ptr %32, i64 40
  %35 = load ptr, ptr %34, align 8
  %.not5.i24 = icmp eq ptr %35, null
  br i1 %.not5.i24, label %proto_item_set_generated.exit25, label %36

36:                                               ; preds = %33
  %37 = getelementptr inbounds nuw i8, ptr %35, i64 28
  %38 = load i32, ptr %37, align 4
  %39 = or i32 %38, 2
  store i32 %39, ptr %37, align 4
  br label %proto_item_set_generated.exit25

proto_item_set_generated.exit25:                  ; preds = %36, %33, %proto_item_set_generated.exit22, %proto_item_set_generated.exit, %3, %4
  ret void
}